; Function Attrs: mustprogress nofree norecurse nosync nounwind willreturn memory(read, inaccessiblemem: none) uwtable
define noundef double @_ZNK8QuantLib35LmLinearExponentialCorrelationModel11correlationEmmdRKNS_5ArrayE(ptr nocapture noundef nonnull readonly align 8 dereferenceable(96) %this, i64 noundef %i, i64 noundef %j, double %0, ptr nocapture nonnull readnone align 8 %1) unnamed_addr #7 align 2 {
entry:
  %corrMatrix_ = getelementptr inbounds nuw i8, ptr %this, i64 40
  %2 = load ptr, ptr %corrMatrix_, align 8, !tbaa !6
  %columns_.i.i = getelementptr inbounds nuw i8, ptr %this, i64 56
  %3 = load i64, ptr %columns_.i.i, align 8, !tbaa !18
  %mul.i.i = mul i64 %3, %i
  %add.ptr.i.i = getelementptr inbounds nuw double, ptr %2, i64 %mul.i.i
  %arrayidx = getelementptr inbounds nuw double, ptr %add.ptr.i.i, i64 %j
  %4 = load double, ptr %arrayidx, align 8, !tbaa !41
  ret double %4
}